target datalayout = "e-m:e-p270:32:32-p271:32:32-p272:64:64-i64:64-i128:128-f80:128-n8:16:32:64-S128"
target triple = "x86_64-pc-linux-gnu"

%struct.anon.0 = type { ptr, ptr }
%struct.agxbuf = type { %union.anon }
%union.anon = type { %struct.anon }
%struct.anon = type { ptr, i64, i64, [7 x i8], i8 }
%struct.Dir_s = type { ptr, [1 x i8] }

@.str = private unnamed_addr constant [6 x i8] c"%s.%s\00", align 1
@state = internal global %struct.anon.0 zeroinitializer, align 8
@.str.1 = private unnamed_addr constant [6 x i8] c"%s/%s\00", align 1
@.str.2 = private unnamed_addr constant [9 x i8] c"%s/%s.%s\00", align 1
@.str.3 = private unnamed_addr constant [10 x i8] c"lib/%s/%s\00", align 1
@.str.4 = private unnamed_addr constant [13 x i8] c"lib/%s/%s.%s\00", align 1
@stderr = external global ptr, align 8
@.str.6 = private unnamed_addr constant [49 x i8] c"out of memory when trying to allocate %zu bytes\0A\00", align 1

; Function Attrs: nounwind uwtable
define internal i64 @agxbsizeof(ptr noundef %0) #0 {
  %2 = alloca i64, align 8
  %3 = alloca ptr, align 8
  store ptr %0, ptr %3, align 8
  %4 = load ptr, ptr %3, align 8
  %5 = call zeroext i1 @agxbuf_is_inline(ptr noundef %4)
  br i1 %5, label %6, label %7

6:                                                ; preds = %1
  store i64 31, ptr %2, align 8
  br label %12

7:                                                ; preds = %1
  %8 = load ptr, ptr %3, align 8
  %9 = getelementptr inbounds %struct.agxbuf, ptr %8, i32 0, i32 0
  %10 = getelementptr inbounds %struct.anon, ptr %9, i32 0, i32 2
  %11 = load i64, ptr %10, align 8
  store i64 %11, ptr %2, align 8
  br label %12

12:                                               ; preds = %7, %6
  %13 = load i64, ptr %2, align 8
  ret i64 %13
}

; Function Attrs: nounwind uwtable
define internal i32 @agxbputc(ptr noundef %0, i8 noundef signext %1) #0 {
  %3 = alloca ptr, align 8
  %4 = alloca i8, align 1
  %5 = alloca i64, align 8
  store ptr %0, ptr %3, align 8
  store i8 %1, ptr %4, align 1
  %6 = load ptr, ptr %3, align 8
  %7 = call i64 @agxblen(ptr noundef %6)
  %8 = load ptr, ptr %3, align 8
  %9 = call i64 @agxbsizeof(ptr noundef %8)
  %10 = icmp uge i64 %7, %9
  br i1 %10, label %11, label %13

11:                                               ; preds = %2
  %12 = load ptr, ptr %3, align 8
  call void @agxbmore(ptr noundef %12, i64 noundef 1)
  br label %13

13:                                               ; preds = %11, %2
  %14 = load ptr, ptr %3, align 8
  %15 = call i64 @agxblen(ptr noundef %14)
  store i64 %15, ptr %5, align 8
  %16 = load ptr, ptr %3, align 8
  %17 = call zeroext i1 @agxbuf_is_inline(ptr noundef %16)
  br i1 %17, label %18, label %29

18:                                               ; preds = %13
  %19 = load i8, ptr %4, align 1
  %20 = load ptr, ptr %3, align 8
  %21 = getelementptr inbounds %struct.agxbuf, ptr %20, i32 0, i32 0
  %22 = load i64, ptr %5, align 8
  %23 = getelementptr inbounds [31 x i8], ptr %21, i64 0, i64 %22
  store i8 %19, ptr %23, align 1
  %24 = load ptr, ptr %3, align 8
  %25 = getelementptr inbounds %struct.agxbuf, ptr %24, i32 0, i32 0
  %26 = getelementptr inbounds %struct.anon, ptr %25, i32 0, i32 4
  %27 = load i8, ptr %26, align 1
  %28 = add i8 %27, 1
  store i8 %28, ptr %26, align 1
  br label %42

29:                                               ; preds = %13
  %30 = load i8, ptr %4, align 1
  %31 = load ptr, ptr %3, align 8
  %32 = getelementptr inbounds %struct.agxbuf, ptr %31, i32 0, i32 0
  %33 = getelementptr inbounds %struct.anon, ptr %32, i32 0, i32 0
  %34 = load ptr, ptr %33, align 8
  %35 = load i64, ptr %5, align 8
  %36 = getelementptr inbounds i8, ptr %34, i64 %35
  store i8 %30, ptr %36, align 1
  %37 = load ptr, ptr %3, align 8
  %38 = getelementptr inbounds %struct.agxbuf, ptr %37, i32 0, i32 0
  %39 = getelementptr inbounds %struct.anon, ptr %38, i32 0, i32 1
  %40 = load i64, ptr %39, align 8
  %41 = add i64 %40, 1
  store i64 %41, ptr %39, align 8
  br label %42

42:                                               ; preds = %29, %18
  ret i32 0
}

; Function Attrs: nounwind uwtable
define internal ptr @gv_strndup(ptr noundef %0, i64 noundef %1) #0 {
  %3 = alloca ptr, align 8
  %4 = alloca i64, align 8
  %5 = alloca ptr, align 8
  store ptr %0, ptr %3, align 8
  store i64 %1, ptr %4, align 8
  %6 = load ptr, ptr %3, align 8
  %7 = load i64, ptr %4, align 8
  %8 = call noalias ptr @strndup(ptr noundef %6, i64 noundef %7) #11
  store ptr %8, ptr %5, align 8
  %9 = load ptr, ptr %5, align 8
  %10 = icmp eq ptr %9, null
  br i1 %10, label %11, label %16

11:                                               ; preds = %2
  %12 = load ptr, ptr @stderr, align 8
  %13 = load i64, ptr %4, align 8
  %14 = add i64 %13, 1
  %15 = call i32 (ptr, ptr, ...) @fprintf(ptr noundef %12, ptr noundef @.str.6, i64 noundef %14) #11
  call void @graphviz_exit(i32 noundef 1) #13
  unreachable

16:                                               ; preds = %2
  %17 = load ptr, ptr %5, align 8
  ret ptr %17
}

; Function Attrs: nounwind uwtable
define internal i64 @agxblen(ptr noundef %0) #0 {
  %2 = alloca i64, align 8
  %3 = alloca ptr, align 8
  store ptr %0, ptr %3, align 8
  %4 = load ptr, ptr %3, align 8
  %5 = call zeroext i1 @agxbuf_is_inline(ptr noundef %4)
  br i1 %5, label %6, label %14

6:                                                ; preds = %1
  %7 = load ptr, ptr %3, align 8
  %8 = getelementptr inbounds %struct.agxbuf, ptr %7, i32 0, i32 0
  %9 = getelementptr inbounds %struct.anon, ptr %8, i32 0, i32 4
  %10 = load i8, ptr %9, align 1
  %11 = zext i8 %10 to i32
  %12 = sub nsw i32 %11, 0
  %13 = sext i32 %12 to i64
  store i64 %13, ptr %2, align 8
  br label %19

14:                                               ; preds = %1
  %15 = load ptr, ptr %3, align 8
  %16 = getelementptr inbounds %struct.agxbuf, ptr %15, i32 0, i32 0
  %17 = getelementptr inbounds %struct.anon, ptr %16, i32 0, i32 1
  %18 = load i64, ptr %17, align 8
  store i64 %18, ptr %2, align 8
  br label %19

19:                                               ; preds = %14, %6
  %20 = load i64, ptr %2, align 8
  ret i64 %20
}

; Function Attrs: nounwind uwtable
define internal zeroext i1 @agxbuf_is_inline(ptr noundef %0) #0 {
  %2 = alloca ptr, align 8
  store ptr %0, ptr %2, align 8
  %3 = load ptr, ptr %2, align 8
  %4 = getelementptr inbounds %struct.agxbuf, ptr %3, i32 0, i32 0
  %5 = getelementptr inbounds %struct.anon, ptr %4, i32 0, i32 4
  %6 = load i8, ptr %5, align 1
  %7 = zext i8 %6 to i32
  %8 = icmp slt i32 %7, 255
  ret i1 %8
}

; Function Attrs: nounwind uwtable
define internal void @agxbfree(ptr noundef %0) #0 {
  %2 = alloca ptr, align 8
  store ptr %0, ptr %2, align 8
  %3 = load ptr, ptr %2, align 8
  %4 = getelementptr inbounds %struct.agxbuf, ptr %3, i32 0, i32 0
  %5 = getelementptr inbounds %struct.anon, ptr %4, i32 0, i32 4
  %6 = load i8, ptr %5, align 1
  %7 = zext i8 %6 to i32
  %8 = icmp eq i32 %7, 255
  br i1 %8, label %9, label %14

9:                                                ; preds = %1
  %10 = load ptr, ptr %2, align 8
  %11 = getelementptr inbounds %struct.agxbuf, ptr %10, i32 0, i32 0
  %12 = getelementptr inbounds %struct.anon, ptr %11, i32 0, i32 0
  %13 = load ptr, ptr %12, align 8
  call void @free(ptr noundef %13) #11
  br label %14

14:                                               ; preds = %9, %1
  ret void
}

; Function Attrs: nounwind uwtable
define internal ptr @agxbdisown(ptr noundef %0) #0 {
  %2 = alloca ptr, align 8
  %3 = alloca ptr, align 8
  store ptr %0, ptr %2, align 8
  %4 = load ptr, ptr %2, align 8
  %5 = call zeroext i1 @agxbuf_is_inline(ptr noundef %4)
  br i1 %5, label %6, label %13

6:                                                ; preds = %1
  %7 = load ptr, ptr %2, align 8
  %8 = getelementptr inbounds %struct.agxbuf, ptr %7, i32 0, i32 0
  %9 = getelementptr inbounds [31 x i8], ptr %8, i64 0, i64 0
  %10 = load ptr, ptr %2, align 8
  %11 = call i64 @agxblen(ptr noundef %10)
  %12 = call ptr @gv_strndup(ptr noundef %9, i64 noundef %11)
  store ptr %12, ptr %3, align 8
  br label %20

13:                                               ; preds = %1
  %14 = load ptr, ptr %2, align 8
  %15 = call i32 @agxbputc(ptr noundef %14, i8 noundef signext 0)
  %16 = load ptr, ptr %2, align 8
  %17 = getelementptr inbounds %struct.agxbuf, ptr %16, i32 0, i32 0
  %18 = getelementptr inbounds %struct.anon, ptr %17, i32 0, i32 0
  %19 = load ptr, ptr %18, align 8
  store ptr %19, ptr %3, align 8
  br label %20

20:                                               ; preds = %13, %6
  %21 = load ptr, ptr %2, align 8
  call void @llvm.memset.p0.i64(ptr align 8 %21, i8 0, i64 32, i1 false)
  %22 = load ptr, ptr %3, align 8
  ret ptr %22
}

; Function Attrs: nounwind uwtable
define ptr @pathfind(ptr noundef %0, ptr noundef %1, ptr noundef %2) #0 {
  %4 = alloca ptr, align 8
  %5 = alloca ptr, align 8
  %6 = alloca ptr, align 8
  %7 = alloca ptr, align 8
  %8 = alloca ptr, align 8
  %9 = alloca ptr, align 8
  %10 = alloca %struct.agxbuf, align 8
  %11 = alloca ptr, align 8
  %12 = alloca ptr, align 8
  store ptr %0, ptr %5, align 8
  store ptr %1, ptr %6, align 8
  store ptr %2, ptr %7, align 8
  call void @llvm.memset.p0.i64(ptr align 8 %10, i8 0, i64 32, i1 false)
  %13 = load ptr, ptr %5, align 8
  %14 = call i32 @access(ptr noundef %13, i32 noundef 4) #11
  %15 = icmp sge i32 %14, 0
  br i1 %15, label %16, label %19

16:                                               ; preds = %3
  %17 = load ptr, ptr %5, align 8
  %18 = call noalias ptr @strdup(ptr noundef %17) #11
  store ptr %18, ptr %4, align 8
  br label %117

19:                                               ; preds = %3
  %20 = load ptr, ptr %7, align 8
  %21 = icmp ne ptr %20, null
  br i1 %21, label %22, label %34

22:                                               ; preds = %19
  %23 = load ptr, ptr %5, align 8
  %24 = load ptr, ptr %7, align 8
  %25 = call i32 (ptr, ptr, ...) @agxbprint(ptr noundef %10, ptr noundef @.str, ptr noundef %23, ptr noundef %24)
  %26 = call ptr @agxbdisown(ptr noundef %10)
  store ptr %26, ptr %12, align 8
  %27 = load ptr, ptr %12, align 8
  %28 = call i32 @access(ptr noundef %27, i32 noundef 4) #11
  %29 = icmp sge i32 %28, 0
  br i1 %29, label %30, label %32

30:                                               ; preds = %22
  %31 = load ptr, ptr %12, align 8
  store ptr %31, ptr %4, align 8
  br label %117

32:                                               ; preds = %22
  %33 = load ptr, ptr %12, align 8
  call void @free(ptr noundef %33) #11
  br label %34

34:                                               ; preds = %32, %19
  %35 = load ptr, ptr %5, align 8
  %36 = load i8, ptr %35, align 1
  %37 = sext i8 %36 to i32
  %38 = icmp ne i32 %37, 47
  br i1 %38, label %39, label %116

39:                                               ; preds = %34
  %40 = load ptr, ptr %5, align 8
  %41 = call ptr @strchr(ptr noundef %40, i32 noundef 46) #12
  %42 = icmp ne ptr %41, null
  br i1 %42, label %43, label %44

43:                                               ; preds = %39
  store ptr null, ptr %7, align 8
  br label %44

44:                                               ; preds = %43, %39
  %45 = load ptr, ptr @state, align 8
  store ptr %45, ptr %8, align 8
  br label %46

46:                                               ; preds = %77, %44
  %47 = load ptr, ptr %8, align 8
  %48 = icmp ne ptr %47, null
  br i1 %48, label %49, label %81

49:                                               ; preds = %46
  %50 = load ptr, ptr %8, align 8
  %51 = getelementptr inbounds %struct.Dir_s, ptr %50, i32 0, i32 1
  %52 = getelementptr inbounds [1 x i8], ptr %51, i64 0, i64 0
  %53 = load ptr, ptr %5, align 8
  %54 = call i32 (ptr, ptr, ...) @agxbprint(ptr noundef %10, ptr noundef @.str.1, ptr noundef %52, ptr noundef %53)
  %55 = call ptr @agxbuse(ptr noundef %10)
  %56 = call ptr @pathpath(ptr noundef %55)
  store ptr %56, ptr %11, align 8
  %57 = icmp ne ptr %56, null
  br i1 %57, label %58, label %60

58:                                               ; preds = %49
  call void @agxbfree(ptr noundef %10)
  %59 = load ptr, ptr %11, align 8
  store ptr %59, ptr %4, align 8
  br label %117

60:                                               ; preds = %49
  %61 = load ptr, ptr %7, align 8
  %62 = icmp ne ptr %61, null
  br i1 %62, label %63, label %76

63:                                               ; preds = %60
  %64 = load ptr, ptr %8, align 8
  %65 = getelementptr inbounds %struct.Dir_s, ptr %64, i32 0, i32 1
  %66 = getelementptr inbounds [1 x i8], ptr %65, i64 0, i64 0
  %67 = load ptr, ptr %5, align 8
  %68 = load ptr, ptr %7, align 8
  %69 = call i32 (ptr, ptr, ...) @agxbprint(ptr noundef %10, ptr noundef @.str.2, ptr noundef %66, ptr noundef %67, ptr noundef %68)
  %70 = call ptr @agxbuse(ptr noundef %10)
  %71 = call ptr @pathpath(ptr noundef %70)
  store ptr %71, ptr %11, align 8
  %72 = icmp ne ptr %71, null
  br i1 %72, label %73, label %75

73:                                               ; preds = %63
  call void @agxbfree(ptr noundef %10)
  %74 = load ptr, ptr %11, align 8
  store ptr %74, ptr %4, align 8
  br label %117

75:                                               ; preds = %63
  br label %76

76:                                               ; preds = %75, %60
  br label %77

77:                                               ; preds = %76
  %78 = load ptr, ptr %8, align 8
  %79 = getelementptr inbounds %struct.Dir_s, ptr %78, i32 0, i32 0
  %80 = load ptr, ptr %79, align 8
  store ptr %80, ptr %8, align 8
  br label %46

81:                                               ; preds = %46
  %82 = load ptr, ptr %6, align 8
  %83 = icmp ne ptr %82, null
  br i1 %83, label %84, label %115

84:                                               ; preds = %81
  %85 = load ptr, ptr %6, align 8
  %86 = call ptr @strrchr(ptr noundef %85, i32 noundef 58) #12
  store ptr %86, ptr %9, align 8
  %87 = icmp ne ptr %86, null
  br i1 %87, label %88, label %91

88:                                               ; preds = %84
  %89 = load ptr, ptr %9, align 8
  %90 = getelementptr inbounds i8, ptr %89, i64 1
  store ptr %90, ptr %6, align 8
  br label %91

91:                                               ; preds = %88, %84
  %92 = load ptr, ptr %6, align 8
  %93 = load ptr, ptr %5, align 8
  %94 = call i32 (ptr, ptr, ...) @agxbprint(ptr noundef %10, ptr noundef @.str.3, ptr noundef %92, ptr noundef %93)
  %95 = call ptr @agxbuse(ptr noundef %10)
  %96 = call ptr @pathpath(ptr noundef %95)
  store ptr %96, ptr %11, align 8
  %97 = icmp ne ptr %96, null
  br i1 %97, label %98, label %100

98:                                               ; preds = %91
  call void @agxbfree(ptr noundef %10)
  %99 = load ptr, ptr %11, align 8
  store ptr %99, ptr %4, align 8
  br label %117

100:                                              ; preds = %91
  %101 = load ptr, ptr %7, align 8
  %102 = icmp ne ptr %101, null
  br i1 %102, label %103, label %114

103:                                              ; preds = %100
  %104 = load ptr, ptr %6, align 8
  %105 = load ptr, ptr %5, align 8
  %106 = load ptr, ptr %7, align 8
  %107 = call i32 (ptr, ptr, ...) @agxbprint(ptr noundef %10, ptr noundef @.str.4, ptr noundef %104, ptr noundef %105, ptr noundef %106)
  %108 = call ptr @agxbuse(ptr noundef %10)
  %109 = call ptr @pathpath(ptr noundef %108)
  store ptr %109, ptr %11, align 8
  %110 = icmp ne ptr %109, null
  br i1 %110, label %111, label %113

111:                                              ; preds = %103
  call void @agxbfree(ptr noundef %10)
  %112 = load ptr, ptr %11, align 8
  store ptr %112, ptr %4, align 8
  br label %117

113:                                              ; preds = %103
  br label %114

114:                                              ; preds = %113, %100
  br label %115

115:                                              ; preds = %114, %81
  br label %116

116:                                              ; preds = %115, %34
  call void @agxbfree(ptr noundef %10)
  store ptr null, ptr %4, align 8
  br label %117

117:                                              ; preds = %116, %111, %98, %73, %58, %30, %16
  %118 = load ptr, ptr %4, align 8
  ret ptr %118
}